target datalayout = "e-m:e-p270:32:32-p271:32:32-p272:64:64-i64:64-i128:128-f80:128-n8:16:32:64-S128"
target triple = "x86_64-pc-linux-gnu"

%"class.clang::SourceLocation" = type { i32 }
%"class.clang::SourceRange" = type { %"class.clang::SourceLocation", %"class.clang::SourceLocation" }
%"class.clang::AttributeCommonInfo" = type { ptr, ptr, %"class.clang::SourceRange", %"class.clang::SourceLocation", i32 }
%"class.clang::InheritableAttr.base" = type { %"class.clang::Attr.base" }
%"class.clang::Attr.base" = type <{ %"class.clang::AttributeCommonInfo", i16, i8 }>
%"class.clang::OMPDeclareVariantAttr" = type { %"class.clang::InheritableAttr.base", ptr, ptr, i32, ptr, i32, ptr, i32, ptr }

; Function Attrs: mustprogress nounwind uwtable
define linkonce_odr hidden noundef ptr @_ZNK5clang21OMPDeclareVariantAttr27adjustArgsNeedDevicePtr_endEv(ptr noundef nonnull align 8 dereferenceable(104) %0) #0 comdat align 2 {
  %2 = alloca ptr, align 8
  store ptr %0, ptr %2, align 8
  %3 = load ptr, ptr %2, align 8
  %4 = getelementptr inbounds nuw %"class.clang::OMPDeclareVariantAttr", ptr %3, i32 0, i32 6
  %5 = load ptr, ptr %4, align 8
  %6 = getelementptr inbounds nuw %"class.clang::OMPDeclareVariantAttr", ptr %3, i32 0, i32 5
  %7 = load i32, ptr %6, align 8
  %8 = zext i32 %7 to i64
  %9 = getelementptr inbounds ptr, ptr %5, i64 %8
  ret ptr %9
}

; Function Attrs: mustprogress nounwind uwtable
define linkonce_odr hidden noundef ptr @_ZNK5clang21OMPDeclareVariantAttr29adjustArgsNeedDevicePtr_beginEv(ptr noundef nonnull align 8 dereferenceable(104) %0) #0 comdat align 2 {
  %2 = alloca ptr, align 8
  store ptr %0, ptr %2, align 8
  %3 = load ptr, ptr %2, align 8
  %4 = getelementptr inbounds nuw %"class.clang::OMPDeclareVariantAttr", ptr %3, i32 0, i32 6
  %5 = load ptr, ptr %4, align 8
  ret ptr %5
}

; Function Attrs: mustprogress nounwind uwtable
define linkonce_odr hidden noundef ptr @_ZNK5clang21OMPDeclareVariantAttr21adjustArgsNothing_endEv(ptr noundef nonnull align 8 dereferenceable(104) %0) #0 comdat align 2 {
  %2 = alloca ptr, align 8
  store ptr %0, ptr %2, align 8
  %3 = load ptr, ptr %2, align 8
  %4 = getelementptr inbounds nuw %"class.clang::OMPDeclareVariantAttr", ptr %3, i32 0, i32 4
  %5 = load ptr, ptr %4, align 8
  %6 = getelementptr inbounds nuw %"class.clang::OMPDeclareVariantAttr", ptr %3, i32 0, i32 3
  %7 = load i32, ptr %6, align 8
  %8 = zext i32 %7 to i64
  %9 = getelementptr inbounds ptr, ptr %5, i64 %8
  ret ptr %9
}

; Function Attrs: mustprogress nounwind uwtable
define linkonce_odr hidden noundef ptr @_ZNK5clang21OMPDeclareVariantAttr23adjustArgsNothing_beginEv(ptr noundef nonnull align 8 dereferenceable(104) %0) #0 comdat align 2 {
  %2 = alloca ptr, align 8
  store ptr %0, ptr %2, align 8
  %3 = load ptr, ptr %2, align 8
  %4 = getelementptr inbounds nuw %"class.clang::OMPDeclareVariantAttr", ptr %3, i32 0, i32 4
  %5 = load ptr, ptr %4, align 8
  ret ptr %5
}

; Function Attrs: mustprogress nounwind uwtable
define linkonce_odr hidden noundef ptr @_ZNK5clang21OMPDeclareVariantAttr17getVariantFuncRefEv(ptr noundef nonnull align 8 dereferenceable(104) %0) #0 comdat align 2 {
  %2 = alloca ptr, align 8
  store ptr %0, ptr %2, align 8
  %3 = load ptr, ptr %2, align 8
  %4 = getelementptr inbounds nuw %"class.clang::OMPDeclareVariantAttr", ptr %3, i32 0, i32 1
  %5 = load ptr, ptr %4, align 8
  ret ptr %5
}

; Function Attrs: mustprogress nounwind uwtable
define internal noundef zeroext i1 @_ZN5clang19RecursiveASTVisitorIN12_GLOBAL__N_118PropertiesRewriter13PlusOneAssignEE26VisitOMPDeclareVariantAttrEPNS_21OMPDeclareVariantAttrE(ptr noundef nonnull align 1 dereferenceable(1) %0, ptr noundef %1) #0 align 2 {
  %3 = alloca ptr, align 8
  %4 = alloca ptr, align 8
  store ptr %0, ptr %3, align 8
  store ptr %1, ptr %4, align 8
  ret i1 true
}

; Function Attrs: mustprogress nounwind uwtable
define internal noundef zeroext i1 @_ZN5clang19RecursiveASTVisitorIN12_GLOBAL__N_118PropertiesRewriter13PlusOneAssignEE9VisitAttrEPNS_4AttrE(ptr noundef nonnull align 1 dereferenceable(1) %0, ptr noundef %1) #0 align 2 {
  %3 = alloca ptr, align 8
  %4 = alloca ptr, align 8
  store ptr %0, ptr %3, align 8
  store ptr %1, ptr %4, align 8
  ret i1 true
}

; Function Attrs: mustprogress nounwind uwtable
define internal noundef nonnull align 8 dereferenceable(8) ptr @_ZN5clang19RecursiveASTVisitorIN12_GLOBAL__N_118PropertiesRewriter13PlusOneAssignEE10getDerivedEv(ptr noundef nonnull align 1 dereferenceable(1) %0) #0 align 2 {
  %2 = alloca ptr, align 8
  store ptr %0, ptr %2, align 8
  %3 = load ptr, ptr %2, align 8
  ret ptr %3
}

; Function Attrs: mustprogress nounwind uwtable
define internal noundef zeroext i1 @_ZN5clang19RecursiveASTVisitorIN12_GLOBAL__N_118PropertiesRewriter13PlusOneAssignEE29TraverseOMPDeclareVariantAttrEPNS_21OMPDeclareVariantAttrE(ptr noundef nonnull align 1 dereferenceable(1) %0, ptr noundef %1) #0 align 2 {
  %3 = alloca i1, align 1
  %4 = alloca ptr, align 8
  %5 = alloca ptr, align 8
  %6 = alloca ptr, align 8
  %7 = alloca ptr, align 8
  %8 = alloca ptr, align 8
  %9 = alloca ptr, align 8
  store ptr %0, ptr %4, align 8
  store ptr %1, ptr %5, align 8
  %10 = load ptr, ptr %4, align 8
  %11 = call noundef nonnull align 8 dereferenceable(8) ptr @_ZN5clang19RecursiveASTVisitorIN12_GLOBAL__N_118PropertiesRewriter13PlusOneAssignEE10getDerivedEv(ptr noundef nonnull align 1 dereferenceable(1) %10)
  %12 = load ptr, ptr %5, align 8
  %13 = call noundef zeroext i1 @_ZN5clang19RecursiveASTVisitorIN12_GLOBAL__N_118PropertiesRewriter13PlusOneAssignEE9VisitAttrEPNS_4AttrE(ptr noundef nonnull align 1 dereferenceable(1) %11, ptr noundef %12)
  br i1 %13, label %15, label %14

14:                                               ; preds = %2
  store i1 false, ptr %3, align 1
  br label %65

15:                                               ; preds = %2
  %16 = call noundef nonnull align 8 dereferenceable(8) ptr @_ZN5clang19RecursiveASTVisitorIN12_GLOBAL__N_118PropertiesRewriter13PlusOneAssignEE10getDerivedEv(ptr noundef nonnull align 1 dereferenceable(1) %10)
  %17 = load ptr, ptr %5, align 8
  %18 = call noundef zeroext i1 @_ZN5clang19RecursiveASTVisitorIN12_GLOBAL__N_118PropertiesRewriter13PlusOneAssignEE26VisitOMPDeclareVariantAttrEPNS_21OMPDeclareVariantAttrE(ptr noundef nonnull align 1 dereferenceable(1) %16, ptr noundef %17)
  br i1 %18, label %20, label %19

19:                                               ; preds = %15
  store i1 false, ptr %3, align 1
  br label %65

20:                                               ; preds = %15
  %21 = call noundef nonnull align 8 dereferenceable(8) ptr @_ZN5clang19RecursiveASTVisitorIN12_GLOBAL__N_118PropertiesRewriter13PlusOneAssignEE10getDerivedEv(ptr noundef nonnull align 1 dereferenceable(1) %10)
  %22 = load ptr, ptr %5, align 8
  %23 = call noundef ptr @_ZNK5clang21OMPDeclareVariantAttr17getVariantFuncRefEv(ptr noundef nonnull align 8 dereferenceable(104) %22)
  %24 = call noundef zeroext i1 @_ZN5clang19RecursiveASTVisitorIN12_GLOBAL__N_118PropertiesRewriter13PlusOneAssignEE12TraverseStmtEPNS_4StmtEPN4llvm15SmallVectorImplINS7_14PointerIntPairIS6_Lj1EbNS7_21PointerLikeTypeTraitsIS6_EENS7_18PointerIntPairInfoIS6_Lj1ESB_EEEEEE(ptr noundef nonnull align 1 dereferenceable(1) %21, ptr noundef %23, ptr noundef null)
  br i1 %24, label %26, label %25

25:                                               ; preds = %20
  store i1 false, ptr %3, align 1
  br label %65

26:                                               ; preds = %20
  %27 = load ptr, ptr %5, align 8
  %28 = call noundef ptr @_ZNK5clang21OMPDeclareVariantAttr23adjustArgsNothing_beginEv(ptr noundef nonnull align 8 dereferenceable(104) %27)
  store ptr %28, ptr %6, align 8
  %29 = load ptr, ptr %5, align 8
  %30 = call noundef ptr @_ZNK5clang21OMPDeclareVariantAttr21adjustArgsNothing_endEv(ptr noundef nonnull align 8 dereferenceable(104) %29)
  store ptr %30, ptr %7, align 8
  br label %31

31:                                               ; preds = %42, %26
  %32 = load ptr, ptr %6, align 8
  %33 = load ptr, ptr %7, align 8
  %34 = icmp ne ptr %32, %33
  br i1 %34, label %35, label %45

35:                                               ; preds = %31
  %36 = call noundef nonnull align 8 dereferenceable(8) ptr @_ZN5clang19RecursiveASTVisitorIN12_GLOBAL__N_118PropertiesRewriter13PlusOneAssignEE10getDerivedEv(ptr noundef nonnull align 1 dereferenceable(1) %10)
  %37 = load ptr, ptr %6, align 8
  %38 = load ptr, ptr %37, align 8
  %39 = call noundef zeroext i1 @_ZN5clang19RecursiveASTVisitorIN12_GLOBAL__N_118PropertiesRewriter13PlusOneAssignEE12TraverseStmtEPNS_4StmtEPN4llvm15SmallVectorImplINS7_14PointerIntPairIS6_Lj1EbNS7_21PointerLikeTypeTraitsIS6_EENS7_18PointerIntPairInfoIS6_Lj1ESB_EEEEEE(ptr noundef nonnull align 1 dereferenceable(1) %36, ptr noundef %38, ptr noundef null)
  br i1 %39, label %41, label %40

40:                                               ; preds = %35
  store i1 false, ptr %3, align 1
  br label %65

41:                                               ; preds = %35
  br label %42

42:                                               ; preds = %41
  %43 = load ptr, ptr %6, align 8
  %44 = getelementptr inbounds ptr, ptr %43, i32 1
  store ptr %44, ptr %6, align 8
  br label %31, !llvm.loop !61

45:                                               ; preds = %31
  %46 = load ptr, ptr %5, align 8
  %47 = call noundef ptr @_ZNK5clang21OMPDeclareVariantAttr29adjustArgsNeedDevicePtr_beginEv(ptr noundef nonnull align 8 dereferenceable(104) %46)
  store ptr %47, ptr %8, align 8
  %48 = load ptr, ptr %5, align 8
  %49 = call noundef ptr @_ZNK5clang21OMPDeclareVariantAttr27adjustArgsNeedDevicePtr_endEv(ptr noundef nonnull align 8 dereferenceable(104) %48)
  store ptr %49, ptr %9, align 8
  br label %50

50:                                               ; preds = %61, %45
  %51 = load ptr, ptr %8, align 8
  %52 = load ptr, ptr %9, align 8
  %53 = icmp ne ptr %51, %52
  br i1 %53, label %54, label %64

54:                                               ; preds = %50
  %55 = call noundef nonnull align 8 dereferenceable(8) ptr @_ZN5clang19RecursiveASTVisitorIN12_GLOBAL__N_118PropertiesRewriter13PlusOneAssignEE10getDerivedEv(ptr noundef nonnull align 1 dereferenceable(1) %10)
  %56 = load ptr, ptr %8, align 8
  %57 = load ptr, ptr %56, align 8
  %58 = call noundef zeroext i1 @_ZN5clang19RecursiveASTVisitorIN12_GLOBAL__N_118PropertiesRewriter13PlusOneAssignEE12TraverseStmtEPNS_4StmtEPN4llvm15SmallVectorImplINS7_14PointerIntPairIS6_Lj1EbNS7_21PointerLikeTypeTraitsIS6_EENS7_18PointerIntPairInfoIS6_Lj1ESB_EEEEEE(ptr noundef nonnull align 1 dereferenceable(1) %55, ptr noundef %57, ptr noundef null)
  br i1 %58, label %60, label %59

59:                                               ; preds = %54
  store i1 false, ptr %3, align 1
  br label %65

60:                                               ; preds = %54
  br label %61

61:                                               ; preds = %60
  %62 = load ptr, ptr %8, align 8
  %63 = getelementptr inbounds ptr, ptr %62, i32 1
  store ptr %63, ptr %8, align 8
  br label %50, !llvm.loop !62

64:                                               ; preds = %50
  store i1 true, ptr %3, align 1
  br label %65

65:                                               ; preds = %64, %59, %40, %25, %19, %14
  %66 = load i1, ptr %3, align 1
  ret i1 %66
}